; ModuleID = '63/1606.c'
source_filename = "63/1606.c"
target datalayout = "e-m:e-p270:32:32-p271:32:32-p272:64:64-i64:64-f80:128-n8:16:32:64-S128"
target triple = "x86_64-pc-linux-gnu"

@.str = private unnamed_addr constant [3 x i8] c"%d\00", align 1
@.str.1 = private unnamed_addr constant [6 x i8] c"%d %d\00", align 1
@.str.2 = private unnamed_addr constant [4 x i8] c"%d \00", align 1
@.str.3 = private unnamed_addr constant [4 x i8] c"%d\0A\00", align 1

; Function Attrs: noinline nounwind uwtable
define dso_local void @stubid(i32 %0, i32 %1, [150 x i32]* %2) #0 {
  %4 = alloca i32, align 4
  %5 = alloca i32, align 4
  %6 = alloca [150 x i32]*, align 8
  %7 = alloca i32, align 4
  %8 = alloca i32, align 4
  store i32 %0, i32* %4, align 4
  store i32 %1, i32* %5, align 4
  store [150 x i32]* %2, [150 x i32]** %6, align 8
  store i32 0, i32* %7, align 4
  br label %9

9:                                                ; preds = %31, %3
  %10 = load i32, i32* %7, align 4
  %11 = load i32, i32* %4, align 4
  %12 = icmp slt i32 %10, %11
  br i1 %12, label %13, label %34

13:                                               ; preds = %9
  store i32 0, i32* %8, align 4
  br label %14

14:                                               ; preds = %27, %13
  %15 = load i32, i32* %8, align 4
  %16 = load i32, i32* %5, align 4
  %17 = icmp slt i32 %15, %16
  br i1 %17, label %18, label %30

18:                                               ; preds = %14
  %19 = load [150 x i32]*, [150 x i32]** %6, align 8
  %20 = load i32, i32* %7, align 4
  %21 = sext i32 %20 to i64
  %22 = getelementptr inbounds [150 x i32], [150 x i32]* %19, i64 %21
  %23 = load i32, i32* %8, align 4
  %24 = sext i32 %23 to i64
  %25 = getelementptr inbounds [150 x i32], [150 x i32]* %22, i64 0, i64 %24
  %26 = call i32 (i8*, ...) @__isoc99_scanf(i8* getelementptr inbounds ([3 x i8], [3 x i8]* @.str, i64 0, i64 0), i32* %25)
  br label %27

27:                                               ; preds = %18
  %28 = load i32, i32* %8, align 4
  %29 = add nsw i32 %28, 1
  store i32 %29, i32* %8, align 4
  br label %14

30:                                               ; preds = %14
  br label %31

31:                                               ; preds = %30
  %32 = load i32, i32* %7, align 4
  %33 = add nsw i32 %32, 1
  store i32 %33, i32* %7, align 4
  br label %9

34:                                               ; preds = %9
  ret void
}

declare dso_local i32 @__isoc99_scanf(i8*, ...) #1

; Function Attrs: noinline nounwind uwtable
define dso_local i32 @main() #0 {
  %1 = alloca i32, align 4
  %2 = alloca [150 x [150 x i32]], align 16
  %3 = alloca [150 x [150 x i32]], align 16
  %4 = alloca i32, align 4
  %5 = alloca i32, align 4
  %6 = alloca i32, align 4
  %7 = alloca i32, align 4
  %8 = alloca i32, align 4
  %9 = alloca i32, align 4
  %10 = alloca i32, align 4
  %11 = alloca i32, align 4
  store i32 0, i32* %1, align 4
  %12 = call i32 (i8*, ...) @__isoc99_scanf(i8* getelementptr inbounds ([6 x i8], [6 x i8]* @.str.1, i64 0, i64 0), i32* %4, i32* %5)
  %13 = load i32, i32* %4, align 4
  %14 = load i32, i32* %5, align 4
  %15 = getelementptr inbounds [150 x [150 x i32]], [150 x [150 x i32]]* %2, i64 0, i64 0
  call void @stubid(i32 %13, i32 %14, [150 x i32]* %15)
  %16 = call i32 (i8*, ...) @__isoc99_scanf(i8* getelementptr inbounds ([6 x i8], [6 x i8]* @.str.1, i64 0, i64 0), i32* %7, i32* %6)
  %17 = load i32, i32* %5, align 4
  %18 = load i32, i32* %6, align 4
  %19 = getelementptr inbounds [150 x [150 x i32]], [150 x [150 x i32]]* %3, i64 0, i64 0
  call void @stubid(i32 %17, i32 %18, [150 x i32]* %19)
  store i32 0, i32* %8, align 4
  br label %20

20:                                               ; preds = %85, %0
  %21 = load i32, i32* %8, align 4
  %22 = load i32, i32* %4, align 4
  %23 = icmp slt i32 %21, %22
  br i1 %23, label %24, label %88

24:                                               ; preds = %20
  store i32 0, i32* %9, align 4
  br label %25

25:                                               ; preds = %81, %24
  %26 = load i32, i32* %9, align 4
  %27 = load i32, i32* %6, align 4
  %28 = icmp slt i32 %26, %27
  br i1 %28, label %29, label %84

29:                                               ; preds = %25
  store i32 0, i32* %11, align 4
  store i32 0, i32* %10, align 4
  br label %30

30:                                               ; preds = %52, %29
  %31 = load i32, i32* %10, align 4
  %32 = load i32, i32* %5, align 4
  %33 = icmp slt i32 %31, %32
  br i1 %33, label %34, label %55

34:                                               ; preds = %30
  %35 = load i32, i32* %11, align 4
  %36 = load i32, i32* %8, align 4
  %37 = sext i32 %36 to i64
  %38 = getelementptr inbounds [150 x [150 x i32]], [150 x [150 x i32]]* %2, i64 0, i64 %37
  %39 = load i32, i32* %10, align 4
  %40 = sext i32 %39 to i64
  %41 = getelementptr inbounds [150 x i32], [150 x i32]* %38, i64 0, i64 %40
  %42 = load i32, i32* %41, align 4
  %43 = load i32, i32* %10, align 4
  %44 = sext i32 %43 to i64
  %45 = getelementptr inbounds [150 x [150 x i32]], [150 x [150 x i32]]* %3, i64 0, i64 %44
  %46 = load i32, i32* %9, align 4
  %47 = sext i32 %46 to i64
  %48 = getelementptr inbounds [150 x i32], [150 x i32]* %45, i64 0, i64 %47
  %49 = load i32, i32* %48, align 4
  %50 = mul nsw i32 %42, %49
  %51 = add nsw i32 %35, %50
  store i32 %51, i32* %11, align 4
  br label %52

52:                                               ; preds = %34
  %53 = load i32, i32* %10, align 4
  %54 = add nsw i32 %53, 1
  store i32 %54, i32* %10, align 4
  br label %30

55:                                               ; preds = %30
  %56 = load i32, i32* %9, align 4
  %57 = load i32, i32* %6, align 4
  %58 = sub nsw i32 %57, 1
  %59 = icmp slt i32 %56, %58
  br i1 %59, label %60, label %63

60:                                               ; preds = %55
  %61 = load i32, i32* %11, align 4
  %62 = call i32 (i8*, ...) @printf(i8* getelementptr inbounds ([4 x i8], [4 x i8]* @.str.2, i64 0, i64 0), i32 %61)
  br label %80

63:                                               ; preds = %55
  %64 = load i32, i32* %9, align 4
  %65 = load i32, i32* %6, align 4
  %66 = sub nsw i32 %65, 1
  %67 = icmp eq i32 %64, %66
  br i1 %67, label %68, label %76

68:                                               ; preds = %63
  %69 = load i32, i32* %8, align 4
  %70 = load i32, i32* %4, align 4
  %71 = sub nsw i32 %70, 1
  %72 = icmp slt i32 %69, %71
  br i1 %72, label %73, label %76

73:                                               ; preds = %68
  %74 = load i32, i32* %11, align 4
  %75 = call i32 (i8*, ...) @printf(i8* getelementptr inbounds ([4 x i8], [4 x i8]* @.str.3, i64 0, i64 0), i32 %74)
  br label %79

76:                                               ; preds = %68, %63
  %77 = load i32, i32* %11, align 4
  %78 = call i32 (i8*, ...) @printf(i8* getelementptr inbounds ([3 x i8], [3 x i8]* @.str, i64 0, i64 0), i32 %77)
  br label %79

79:                                               ; preds = %76, %73
  br label %80

80:                                               ; preds = %79, %60
  br label %81

81:                                               ; preds = %80
  %82 = load i32, i32* %9, align 4
  %83 = add nsw i32 %82, 1
  store i32 %83, i32* %9, align 4
  br label %25

84:                                               ; preds = %25
  br label %85

85:                                               ; preds = %84
  %86 = load i32, i32* %8, align 4
  %87 = add nsw i32 %86, 1
  store i32 %87, i32* %8, align 4
  br label %20

88:                                               ; preds = %20
  ret i32 0
}

declare dso_local i32 @printf(i8*, ...) #1


!llvm.module.flags = !{!0}
!llvm.ident = !{!1}

!0 = !{i32 1, !"wchar_size", i32 4}
!1 = !{!"clang version 10.0.0-4ubuntu1 "}
